target datalayout = "e-m:e-p270:32:32-p271:32:32-p272:64:64-i64:64-i128:128-f80:128-n8:16:32:64-S128"
target triple = "x86_64-pc-linux-gnu"

%struct.Codebook = type { i32, i32, ptr, float, float, i8, i8, i8, i8, i32, ptr, ptr, [1024 x i16], ptr, ptr, i32 }

; Function Attrs: nounwind uwtable
define void @add_entry(ptr noundef %0, i32 noundef %1, i32 noundef %2, i32 noundef %3, i32 noundef %4, ptr noundef %5) #0 {
  %7 = alloca ptr, align 8
  %8 = alloca i32, align 4
  %9 = alloca i32, align 4
  %10 = alloca i32, align 4
  %11 = alloca i32, align 4
  %12 = alloca ptr, align 8
  store ptr %0, ptr %7, align 8, !tbaa !18
  store i32 %1, ptr %8, align 4, !tbaa !8
  store i32 %2, ptr %9, align 4, !tbaa !8
  store i32 %3, ptr %10, align 4, !tbaa !8
  store i32 %4, ptr %11, align 4, !tbaa !8
  store ptr %5, ptr %12, align 8, !tbaa !33
  %13 = load ptr, ptr %7, align 8, !tbaa !18
  %14 = getelementptr inbounds nuw %struct.Codebook, ptr %13, i32 0, i32 8
  %15 = load i8, ptr %14, align 1, !tbaa !35
  %16 = icmp ne i8 %15, 0
  br i1 %16, label %25, label %17

17:                                               ; preds = %6
  %18 = load i32, ptr %8, align 4, !tbaa !8
  %19 = load ptr, ptr %7, align 8, !tbaa !18
  %20 = getelementptr inbounds nuw %struct.Codebook, ptr %19, i32 0, i32 11
  %21 = load ptr, ptr %20, align 8, !tbaa !38
  %22 = load i32, ptr %9, align 4, !tbaa !8
  %23 = sext i32 %22 to i64
  %24 = getelementptr inbounds i32, ptr %21, i64 %23
  store i32 %18, ptr %24, align 4, !tbaa !8
  br label %46

25:                                               ; preds = %6
  %26 = load i32, ptr %8, align 4, !tbaa !8
  %27 = load ptr, ptr %7, align 8, !tbaa !18
  %28 = getelementptr inbounds nuw %struct.Codebook, ptr %27, i32 0, i32 11
  %29 = load ptr, ptr %28, align 8, !tbaa !38
  %30 = load i32, ptr %10, align 4, !tbaa !8
  %31 = sext i32 %30 to i64
  %32 = getelementptr inbounds i32, ptr %29, i64 %31
  store i32 %26, ptr %32, align 4, !tbaa !8
  %33 = load i32, ptr %11, align 4, !tbaa !8
  %34 = trunc i32 %33 to i8
  %35 = load ptr, ptr %7, align 8, !tbaa !18
  %36 = getelementptr inbounds nuw %struct.Codebook, ptr %35, i32 0, i32 2
  %37 = load ptr, ptr %36, align 8, !tbaa !39
  %38 = load i32, ptr %10, align 4, !tbaa !8
  %39 = sext i32 %38 to i64
  %40 = getelementptr inbounds i8, ptr %37, i64 %39
  store i8 %34, ptr %40, align 1, !tbaa !30
  %41 = load i32, ptr %9, align 4, !tbaa !8
  %42 = load ptr, ptr %12, align 8, !tbaa !33
  %43 = load i32, ptr %10, align 4, !tbaa !8
  %44 = sext i32 %43 to i64
  %45 = getelementptr inbounds i32, ptr %42, i64 %44
  store i32 %41, ptr %45, align 4, !tbaa !8
  br label %46

46:                                               ; preds = %25, %17
  ret void
}