; Function Attrs: mustprogress nofree norecurse nosync nounwind willreturn memory(write, argmem: readwrite, inaccessiblemem: none) uwtable
define void @add_entry(ptr noundef readonly captures(none) %0, i32 noundef %1, i32 noundef %2, i32 noundef %3, i32 noundef %4, ptr noundef writeonly captures(none) %5) local_unnamed_addr #12 {
  %7 = getelementptr inbounds nuw i8, ptr %0, i64 27
  %8 = load i8, ptr %7, align 1, !tbaa !24
  %.not = icmp eq i8 %8, 0
  %9 = getelementptr inbounds nuw i8, ptr %0, i64 40
  %10 = load ptr, ptr %9, align 8, !tbaa !29
  br i1 %.not, label %11, label %14

11:                                               ; preds = %6
  %12 = sext i32 %2 to i64
  %13 = getelementptr inbounds i32, ptr %10, i64 %12
  store i32 %1, ptr %13, align 4, !tbaa !21
  br label %22

14:                                               ; preds = %6
  %15 = sext i32 %3 to i64
  %16 = getelementptr inbounds i32, ptr %10, i64 %15
  store i32 %1, ptr %16, align 4, !tbaa !21
  %17 = trunc i32 %4 to i8
  %18 = getelementptr inbounds nuw i8, ptr %0, i64 8
  %19 = load ptr, ptr %18, align 8, !tbaa !30
  %20 = getelementptr inbounds i8, ptr %19, i64 %15
  store i8 %17, ptr %20, align 1, !tbaa !23
  %21 = getelementptr inbounds i32, ptr %5, i64 %15
  store i32 %2, ptr %21, align 4, !tbaa !21
  br label %22

22:                                               ; preds = %14, %11
  ret void
}